target datalayout = "e-m:e-p270:32:32-p271:32:32-p272:64:64-i64:64-i128:128-f80:128-n8:16:32:64-S128"
target triple = "x86_64-pc-linux-gnu"

; Function Attrs: nounwind uwtable
define void @Java_com_sun_media_sound_PortMixer_nControlSetIntValue(ptr noundef %0, ptr noundef %1, i64 noundef %2, i32 noundef %3) #0 {
  %5 = alloca ptr, align 8
  %6 = alloca ptr, align 8
  %7 = alloca i64, align 8
  %8 = alloca i32, align 4
  store ptr %0, ptr %5, align 8
  store ptr %1, ptr %6, align 8
  store i64 %2, ptr %7, align 8
  store i32 %3, ptr %8, align 4
  %9 = load i64, ptr %7, align 8
  %10 = icmp ne i64 %9, 0
  br i1 %10, label %11, label %15

11:                                               ; preds = %4
  %12 = load i64, ptr %7, align 8
  %13 = inttoptr i64 %12 to ptr
  %14 = load i32, ptr %8, align 4
  call void @PORT_SetIntValue(ptr noundef %13, i32 noundef %14)
  br label %15

15:                                               ; preds = %11, %4
  ret void
}