; Function Attrs: nounwind uwtable
define void @Java_com_sun_media_sound_PortMixer_nControlSetIntValue(ptr nocapture noundef readnone %0, ptr nocapture noundef readnone %1, i64 noundef %2, i32 noundef %3) local_unnamed_addr #0 {
  %.not = icmp eq i64 %2, 0
  br i1 %.not, label %7, label %5

5:                                                ; preds = %4
  %6 = inttoptr i64 %2 to ptr
  tail call void @PORT_SetIntValue(ptr noundef nonnull %6, i32 noundef %3) #3
  br label %7

7:                                                ; preds = %5, %4
  ret void
}